target datalayout = "e-m:e-p270:32:32-p271:32:32-p272:64:64-i64:64-i128:128-f80:128-n8:16:32:64-S128"
target triple = "x86_64-pc-linux-gnu"

%struct.DdNode = type { i32, i32, ptr, %union.anon, i64 }
%union.anon = type { %struct.DdChildren }
%struct.DdChildren = type { ptr, ptr }
%struct.DdHashTable = type { i32, i32, ptr, ptr, ptr, i32, i32, i32, i32, ptr }
%struct.DdHashItem = type { ptr, i64, ptr, [1 x ptr] }

; Function Attrs: inlinehint nounwind uwtable
define internal i32 @ddLCHash(ptr noundef %0, i32 noundef %1, i32 noundef %2) #7 {
  %4 = alloca ptr, align 8
  %5 = alloca i32, align 4
  %6 = alloca i32, align 4
  %7 = alloca i32, align 4
  %8 = alloca i32, align 4
  store ptr %0, ptr %4, align 8, !tbaa !49
  store i32 %1, ptr %5, align 4, !tbaa !8
  store i32 %2, ptr %6, align 4, !tbaa !8
  call void @llvm.lifetime.start.p0(i64 4, ptr %7) #10
  %9 = load ptr, ptr %4, align 8, !tbaa !49
  %10 = getelementptr inbounds ptr, ptr %9, i64 0
  %11 = load ptr, ptr %10, align 8, !tbaa !50
  %12 = ptrtoint ptr %11 to i64
  %13 = trunc i64 %12 to i32
  %14 = mul i32 %13, 4256249
  store i32 %14, ptr %7, align 4, !tbaa !8
  call void @llvm.lifetime.start.p0(i64 4, ptr %8) #10
  store i32 1, ptr %8, align 4, !tbaa !8
  br label %15

15:                                               ; preds = %30, %3
  %16 = load i32, ptr %8, align 4, !tbaa !8
  %17 = load i32, ptr %5, align 4, !tbaa !8
  %18 = icmp ult i32 %16, %17
  br i1 %18, label %19, label %33

19:                                               ; preds = %15
  %20 = load i32, ptr %7, align 4, !tbaa !8
  %21 = mul i32 %20, 12582917
  %22 = load ptr, ptr %4, align 8, !tbaa !49
  %23 = load i32, ptr %8, align 4, !tbaa !8
  %24 = zext i32 %23 to i64
  %25 = getelementptr inbounds nuw ptr, ptr %22, i64 %24
  %26 = load ptr, ptr %25, align 8, !tbaa !50
  %27 = ptrtoint ptr %26 to i64
  %28 = trunc i64 %27 to i32
  %29 = add i32 %21, %28
  store i32 %29, ptr %7, align 4, !tbaa !8
  br label %30

30:                                               ; preds = %19
  %31 = load i32, ptr %8, align 4, !tbaa !8
  %32 = add i32 %31, 1
  store i32 %32, ptr %8, align 4, !tbaa !8
  br label %15, !llvm.loop !54

33:                                               ; preds = %15
  %34 = load i32, ptr %7, align 4, !tbaa !8
  %35 = load i32, ptr %6, align 4, !tbaa !8
  %36 = lshr i32 %34, %35
  call void @llvm.lifetime.end.p0(i64 4, ptr %8) #10
  call void @llvm.lifetime.end.p0(i64 4, ptr %7) #10
  ret i32 %36
}

; Function Attrs: nounwind uwtable
define i32 @cuddHashTableInsert(ptr noundef %0, ptr noundef %1, ptr noundef %2, i64 noundef %3) #0 {
  %5 = alloca i32, align 4
  %6 = alloca ptr, align 8
  %7 = alloca ptr, align 8
  %8 = alloca ptr, align 8
  %9 = alloca i64, align 8
  %10 = alloca i32, align 4
  %11 = alloca i32, align 4
  %12 = alloca ptr, align 8
  %13 = alloca i32, align 4
  %14 = alloca i32, align 4
  store ptr %0, ptr %6, align 8, !tbaa !62
  store ptr %1, ptr %7, align 8, !tbaa !49
  store ptr %2, ptr %8, align 8, !tbaa !50
  store i64 %3, ptr %9, align 8, !tbaa !85
  call void @llvm.lifetime.start.p0(i64 4, ptr %10) #10
  call void @llvm.lifetime.start.p0(i64 4, ptr %11) #10
  call void @llvm.lifetime.start.p0(i64 8, ptr %12) #10
  call void @llvm.lifetime.start.p0(i64 4, ptr %13) #10
  %15 = load ptr, ptr %6, align 8, !tbaa !62
  %16 = getelementptr inbounds nuw %struct.DdHashTable, ptr %15, i32 0, i32 7
  %17 = load i32, ptr %16, align 8, !tbaa !75
  %18 = load ptr, ptr %6, align 8, !tbaa !62
  %19 = getelementptr inbounds nuw %struct.DdHashTable, ptr %18, i32 0, i32 8
  %20 = load i32, ptr %19, align 4, !tbaa !76
  %21 = icmp ugt i32 %17, %20
  br i1 %21, label %22, label %29

22:                                               ; preds = %4
  %23 = load ptr, ptr %6, align 8, !tbaa !62
  %24 = call i32 @cuddHashTableResize(ptr noundef %23)
  store i32 %24, ptr %10, align 4, !tbaa !8
  %25 = load i32, ptr %10, align 4, !tbaa !8
  %26 = icmp eq i32 %25, 0
  br i1 %26, label %27, label %28

27:                                               ; preds = %22
  store i32 0, ptr %5, align 4
  store i32 1, ptr %14, align 4
  br label %98

28:                                               ; preds = %22
  br label %29

29:                                               ; preds = %28, %4
  %30 = load ptr, ptr %6, align 8, !tbaa !62
  %31 = call ptr @cuddHashTableAlloc(ptr noundef %30)
  store ptr %31, ptr %12, align 8, !tbaa !77
  %32 = load ptr, ptr %12, align 8, !tbaa !77
  %33 = icmp eq ptr %32, null
  br i1 %33, label %34, label %35

34:                                               ; preds = %29
  store i32 0, ptr %5, align 4
  store i32 1, ptr %14, align 4
  br label %98

35:                                               ; preds = %29
  %36 = load ptr, ptr %6, align 8, !tbaa !62
  %37 = getelementptr inbounds nuw %struct.DdHashTable, ptr %36, i32 0, i32 7
  %38 = load i32, ptr %37, align 8, !tbaa !75
  %39 = add i32 %38, 1
  store i32 %39, ptr %37, align 8, !tbaa !75
  %40 = load ptr, ptr %8, align 8, !tbaa !50
  %41 = load ptr, ptr %12, align 8, !tbaa !77
  %42 = getelementptr inbounds nuw %struct.DdHashItem, ptr %41, i32 0, i32 2
  store ptr %40, ptr %42, align 8, !tbaa !78
  %43 = load ptr, ptr %8, align 8, !tbaa !50
  %44 = ptrtoint ptr %43 to i64
  %45 = and i64 %44, -2
  %46 = inttoptr i64 %45 to ptr
  %47 = getelementptr inbounds nuw %struct.DdNode, ptr %46, i32 0, i32 1
  %48 = load i32, ptr %47, align 4, !tbaa !55
  %49 = add i32 %48, 1
  store i32 %49, ptr %47, align 4, !tbaa !55
  %50 = load i64, ptr %9, align 8, !tbaa !85
  %51 = load ptr, ptr %12, align 8, !tbaa !77
  %52 = getelementptr inbounds nuw %struct.DdHashItem, ptr %51, i32 0, i32 1
  store i64 %50, ptr %52, align 8, !tbaa !86
  store i32 0, ptr %13, align 4, !tbaa !8
  br label %53

53:                                               ; preds = %70, %35
  %54 = load i32, ptr %13, align 4, !tbaa !8
  %55 = load ptr, ptr %6, align 8, !tbaa !62
  %56 = getelementptr inbounds nuw %struct.DdHashTable, ptr %55, i32 0, i32 0
  %57 = load i32, ptr %56, align 8, !tbaa !64
  %58 = icmp ult i32 %54, %57
  br i1 %58, label %59, label %73

59:                                               ; preds = %53
  %60 = load ptr, ptr %7, align 8, !tbaa !49
  %61 = load i32, ptr %13, align 4, !tbaa !8
  %62 = zext i32 %61 to i64
  %63 = getelementptr inbounds nuw ptr, ptr %60, i64 %62
  %64 = load ptr, ptr %63, align 8, !tbaa !50
  %65 = load ptr, ptr %12, align 8, !tbaa !77
  %66 = getelementptr inbounds nuw %struct.DdHashItem, ptr %65, i32 0, i32 3
  %67 = load i32, ptr %13, align 4, !tbaa !8
  %68 = zext i32 %67 to i64
  %69 = getelementptr inbounds nuw [1 x ptr], ptr %66, i64 0, i64 %68
  store ptr %64, ptr %69, align 8, !tbaa !50
  br label %70

70:                                               ; preds = %59
  %71 = load i32, ptr %13, align 4, !tbaa !8
  %72 = add i32 %71, 1
  store i32 %72, ptr %13, align 4, !tbaa !8
  br label %53, !llvm.loop !87

73:                                               ; preds = %53
  %74 = load ptr, ptr %7, align 8, !tbaa !49
  %75 = load ptr, ptr %6, align 8, !tbaa !62
  %76 = getelementptr inbounds nuw %struct.DdHashTable, ptr %75, i32 0, i32 0
  %77 = load i32, ptr %76, align 8, !tbaa !64
  %78 = load ptr, ptr %6, align 8, !tbaa !62
  %79 = getelementptr inbounds nuw %struct.DdHashTable, ptr %78, i32 0, i32 6
  %80 = load i32, ptr %79, align 4, !tbaa !73
  %81 = call i32 @ddLCHash(ptr noundef %74, i32 noundef %77, i32 noundef %80)
  store i32 %81, ptr %11, align 4, !tbaa !8
  %82 = load ptr, ptr %6, align 8, !tbaa !62
  %83 = getelementptr inbounds nuw %struct.DdHashTable, ptr %82, i32 0, i32 2
  %84 = load ptr, ptr %83, align 8, !tbaa !74
  %85 = load i32, ptr %11, align 4, !tbaa !8
  %86 = zext i32 %85 to i64
  %87 = getelementptr inbounds nuw ptr, ptr %84, i64 %86
  %88 = load ptr, ptr %87, align 8, !tbaa !77
  %89 = load ptr, ptr %12, align 8, !tbaa !77
  %90 = getelementptr inbounds nuw %struct.DdHashItem, ptr %89, i32 0, i32 0
  store ptr %88, ptr %90, align 8, !tbaa !80
  %91 = load ptr, ptr %12, align 8, !tbaa !77
  %92 = load ptr, ptr %6, align 8, !tbaa !62
  %93 = getelementptr inbounds nuw %struct.DdHashTable, ptr %92, i32 0, i32 2
  %94 = load ptr, ptr %93, align 8, !tbaa !74
  %95 = load i32, ptr %11, align 4, !tbaa !8
  %96 = zext i32 %95 to i64
  %97 = getelementptr inbounds nuw ptr, ptr %94, i64 %96
  store ptr %91, ptr %97, align 8, !tbaa !77
  store i32 1, ptr %5, align 4
  store i32 1, ptr %14, align 4
  br label %98

98:                                               ; preds = %73, %34, %27
  call void @llvm.lifetime.end.p0(i64 4, ptr %13) #10
  call void @llvm.lifetime.end.p0(i64 8, ptr %12) #10
  call void @llvm.lifetime.end.p0(i64 4, ptr %11) #10
  call void @llvm.lifetime.end.p0(i64 4, ptr %10) #10
  %99 = load i32, ptr %5, align 4
  ret i32 %99
}