; Function Attrs: nounwind uwtable
define range(i32 0, 2) i32 @cuddHashTableInsert(ptr noundef captures(none) %0, ptr noundef readonly captures(none) %1, ptr noundef %2, i64 noundef %3) local_unnamed_addr #0 {
  %5 = getelementptr inbounds nuw i8, ptr %0, i64 40
  %6 = load i32, ptr %5, align 8, !tbaa !65
  %7 = getelementptr inbounds nuw i8, ptr %0, i64 44
  %8 = load i32, ptr %7, align 4, !tbaa !66
  %9 = icmp ugt i32 %6, %8
  br i1 %9, label %10, label %11

10:                                               ; preds = %4
  tail call fastcc void @cuddHashTableResize(ptr noundef nonnull %0)
  br label %11

11:                                               ; preds = %10, %4
  %12 = tail call fastcc ptr @cuddHashTableAlloc(ptr noundef nonnull %0)
  %13 = icmp eq ptr %12, null
  br i1 %13, label %56, label %14

14:                                               ; preds = %11
  %15 = load i32, ptr %5, align 8, !tbaa !65
  %16 = add i32 %15, 1
  store i32 %16, ptr %5, align 8, !tbaa !65
  %17 = getelementptr inbounds nuw i8, ptr %12, i64 16
  store ptr %2, ptr %17, align 8, !tbaa !68
  %18 = ptrtoint ptr %2 to i64
  %19 = and i64 %18, -2
  %20 = inttoptr i64 %19 to ptr
  %21 = getelementptr inbounds nuw i8, ptr %20, i64 4
  %22 = load i32, ptr %21, align 4, !tbaa !49
  %23 = add i32 %22, 1
  store i32 %23, ptr %21, align 4, !tbaa !49
  %24 = getelementptr inbounds nuw i8, ptr %12, i64 8
  store i64 %3, ptr %24, align 8, !tbaa !74
  %25 = load i32, ptr %0, align 8, !tbaa !56
  %.not = icmp eq i32 %25, 0
  br i1 %.not, label %._crit_edge.thread, label %.lr.ph

._crit_edge.thread:                               ; preds = %14
  %26 = getelementptr inbounds nuw i8, ptr %0, i64 36
  %27 = load i32, ptr %26, align 4, !tbaa !63
  %28 = load ptr, ptr %1, align 8, !tbaa !45
  %29 = ptrtoint ptr %28 to i64
  %30 = trunc i64 %29 to i32
  %31 = mul i32 %30, 4256249
  br label %ddLCHash.exit

.lr.ph:                                           ; preds = %14
  %32 = getelementptr inbounds nuw i8, ptr %12, i64 24
  %wide.trip.count = zext i32 %25 to i64
  br label %33

33:                                               ; preds = %.lr.ph, %33
  %indvars.iv = phi i64 [ 0, %.lr.ph ], [ %indvars.iv.next, %33 ]
  %34 = getelementptr inbounds nuw ptr, ptr %1, i64 %indvars.iv
  %35 = load ptr, ptr %34, align 8, !tbaa !45
  %36 = getelementptr inbounds nuw [1 x ptr], ptr %32, i64 0, i64 %indvars.iv
  store ptr %35, ptr %36, align 8, !tbaa !45
  %indvars.iv.next = add nuw nsw i64 %indvars.iv, 1
  %exitcond.not = icmp eq i64 %indvars.iv.next, %wide.trip.count
  br i1 %exitcond.not, label %._crit_edge, label %33, !llvm.loop !75

._crit_edge:                                      ; preds = %33
  %37 = getelementptr inbounds nuw i8, ptr %0, i64 36
  %38 = load i32, ptr %37, align 4, !tbaa !63
  %39 = load ptr, ptr %1, align 8, !tbaa !45
  %40 = ptrtoint ptr %39 to i64
  %41 = trunc i64 %40 to i32
  %42 = mul i32 %41, 4256249
  %.not34 = icmp eq i32 %25, 1
  br i1 %.not34, label %ddLCHash.exit, label %.lr.ph.preheader.i

.lr.ph.preheader.i:                               ; preds = %._crit_edge
  %wide.trip.count.i = zext i32 %25 to i64
  br label %.lr.ph.i

.lr.ph.i:                                         ; preds = %.lr.ph.i, %.lr.ph.preheader.i
  %indvars.iv.i = phi i64 [ 1, %.lr.ph.preheader.i ], [ %indvars.iv.next.i, %.lr.ph.i ]
  %.089.i = phi i32 [ %42, %.lr.ph.preheader.i ], [ %48, %.lr.ph.i ]
  %43 = mul i32 %.089.i, 12582917
  %44 = getelementptr inbounds nuw ptr, ptr %1, i64 %indvars.iv.i
  %45 = load ptr, ptr %44, align 8, !tbaa !45
  %46 = ptrtoint ptr %45 to i64
  %47 = trunc i64 %46 to i32
  %48 = add i32 %43, %47
  %indvars.iv.next.i = add nuw nsw i64 %indvars.iv.i, 1
  %exitcond.not.i = icmp eq i64 %indvars.iv.next.i, %wide.trip.count.i
  br i1 %exitcond.not.i, label %ddLCHash.exit, label %.lr.ph.i, !llvm.loop !46

ddLCHash.exit:                                    ; preds = %.lr.ph.i, %._crit_edge.thread, %._crit_edge
  %49 = phi i32 [ %38, %._crit_edge ], [ %27, %._crit_edge.thread ], [ %38, %.lr.ph.i ]
  %.08.lcssa.i = phi i32 [ %42, %._crit_edge ], [ %31, %._crit_edge.thread ], [ %48, %.lr.ph.i ]
  %50 = lshr i32 %.08.lcssa.i, %49
  %51 = getelementptr inbounds nuw i8, ptr %0, i64 8
  %52 = load ptr, ptr %51, align 8, !tbaa !64
  %53 = zext i32 %50 to i64
  %54 = getelementptr inbounds nuw ptr, ptr %52, i64 %53
  %55 = load ptr, ptr %54, align 8, !tbaa !67
  store ptr %55, ptr %12, align 8, !tbaa !76
  store ptr %12, ptr %54, align 8, !tbaa !67
  br label %56

56:                                               ; preds = %11, %ddLCHash.exit
  %.028 = phi i32 [ 1, %ddLCHash.exit ], [ 0, %11 ]
  ret i32 %.028
}